; Function Attrs: mustprogress nounwind uwtable
define hidden void @_ZN13InstanceKlass13set_nest_hostEPS_(ptr noundef nonnull align 8 dereferenceable(464) %0, ptr noundef %1) local_unnamed_addr #0 align 2 {
  %3 = load volatile ptr, ptr getelementptr inbounds (i8, ptr @_ZN16LogTagSetMappingILN6LogTag4typeE16ELS1_93ELS1_0ELS1_0ELS1_0ELS1_0EE7_tagsetE, i64 48), align 8
  %.not12 = icmp eq ptr %3, null
  br i1 %.not12, label %_ZN12ResourceMarkD2Ev.exit, label %4

4:                                                ; preds = %2
  %5 = tail call align 8 ptr @llvm.threadlocal.address.p0(ptr align 8 @_ZN6Thread12_thr_currentE)
  %6 = load ptr, ptr %5, align 8
  %7 = getelementptr inbounds i8, ptr %6, i64 800
  %8 = load ptr, ptr %7, align 8
  %9 = getelementptr inbounds i8, ptr %8, i64 24
  %10 = load ptr, ptr %9, align 8
  %11 = getelementptr inbounds i8, ptr %8, i64 32
  %12 = load ptr, ptr %11, align 8
  %13 = getelementptr inbounds i8, ptr %8, i64 40
  %14 = load ptr, ptr %13, align 8
  %15 = getelementptr inbounds i8, ptr %8, i64 8
  %16 = load i64, ptr %15, align 8
  %17 = getelementptr inbounds i8, ptr %0, i64 296
  %18 = load i16, ptr %17, align 8
  %.not = icmp eq i16 %18, 0
  br i1 %.not, label %19, label %24

19:                                               ; preds = %4
  %20 = getelementptr inbounds i8, ptr %0, i64 240
  %21 = load ptr, ptr %20, align 8
  %.not7 = icmp eq ptr %21, null
  br i1 %.not7, label %24, label %22

22:                                               ; preds = %19
  %23 = load ptr, ptr @_ZN8Universe22_the_empty_short_arrayE, align 8
  %.not8 = icmp eq ptr %21, %23
  %spec.select = select i1 %.not8, ptr @.str.22, ptr @.str.24
  br label %24

24:                                               ; preds = %22, %4, %19
  %.0 = phi ptr [ @.str.22, %19 ], [ @.str.23, %4 ], [ %spec.select, %22 ]
  %25 = load volatile ptr, ptr getelementptr inbounds (i8, ptr @_ZN16LogTagSetMappingILN6LogTag4typeE16ELS1_93ELS1_0ELS1_0ELS1_0ELS1_0EE7_tagsetE, i64 48), align 8
  %.not13 = icmp eq ptr %25, null
  br i1 %.not13, label %29, label %26

26:                                               ; preds = %24
  %27 = tail call noundef ptr @_ZNK5Klass13external_nameEv(ptr noundef nonnull align 8 dereferenceable(196) %0) #26
  %28 = tail call noundef ptr @_ZNK5Klass13external_nameEv(ptr noundef nonnull align 8 dereferenceable(196) %1) #26
  tail call void (ptr, ...) @_ZN7LogImplILN6LogTag4typeE16ELS1_93ELS1_0ELS1_0ELS1_0ELS1_0EE5writeILN8LogLevel4typeE1EEEvPKcz(ptr noundef nonnull @.str.25, ptr noundef %27, ptr noundef %28, ptr noundef nonnull %.0)
  br label %29

29:                                               ; preds = %24, %26
  %30 = load ptr, ptr %10, align 8
  %.not.i.i.i.i = icmp eq ptr %30, null
  br i1 %.not.i.i.i.i, label %32, label %31

31:                                               ; preds = %29
  tail call void @_ZN5Arena17set_size_in_bytesEm(ptr noundef nonnull align 8 dereferenceable(48) %8, i64 noundef %16) #26
  tail call void @_ZN5Chunk9next_chopEPS_(ptr noundef nonnull %10) #26
  br label %32

32:                                               ; preds = %31, %29
  %33 = load ptr, ptr %11, align 8
  %.not8.i.i.i.i = icmp eq ptr %33, %12
  br i1 %.not8.i.i.i.i, label %_ZN12ResourceMarkD2Ev.exit, label %34

34:                                               ; preds = %32
  store ptr %10, ptr %9, align 8
  store ptr %12, ptr %11, align 8
  store ptr %14, ptr %13, align 8
  br label %_ZN12ResourceMarkD2Ev.exit

_ZN12ResourceMarkD2Ev.exit:                       ; preds = %34, %32, %2
  %35 = getelementptr inbounds i8, ptr %0, i64 248
  store ptr %1, ptr %35, align 8
  %36 = getelementptr inbounds i8, ptr %0, i64 152
  %37 = load ptr, ptr %36, align 8
  tail call void @_ZN15ClassLoaderData17record_dependencyEPK5Klass(ptr noundef nonnull align 8 dereferenceable(160) %37, ptr noundef %1) #26
  ret void
}